target datalayout = "e-m:e-p270:32:32-p271:32:32-p272:64:64-i64:64-i128:128-f80:128-n8:16:32:64-S128"
target triple = "x86_64-pc-linux-gnu"

%struct._GLFWlibrary = type { i32, %struct.GLFWallocator, %struct._GLFWplatform, %struct.anon, ptr, ptr, ptr, ptr, i32, i32, [16 x %struct._GLFWjoystick], ptr, i32, %struct._GLFWtls, %struct._GLFWtls, %struct._GLFWmutex, %struct.anon.8, %struct.anon.9, %struct.anon.10, %struct.anon.11, %struct.anon.12, %struct._GLFWlibraryWayland, %struct._GLFWlibraryX11, %struct._GLFWlibraryNull, %struct._GLFWlibraryGLX, %struct._GLFWlibraryLinux }
%struct.GLFWallocator = type { ptr, ptr, ptr, ptr }
%struct._GLFWplatform = type { i32, ptr, ptr, ptr, ptr, ptr, ptr, ptr, ptr, ptr, ptr, ptr, ptr, ptr, ptr, ptr, ptr, ptr, ptr, ptr, ptr, ptr, ptr, ptr, ptr, ptr, ptr, ptr, ptr, ptr, ptr, ptr, ptr, ptr, ptr, ptr, ptr, ptr, ptr, ptr, ptr, ptr, ptr, ptr, ptr, ptr, ptr, ptr, ptr, ptr, ptr, ptr, ptr, ptr, ptr, ptr, ptr, ptr, ptr, ptr, ptr, ptr, ptr, ptr, ptr, ptr, ptr, ptr, ptr, ptr, ptr, ptr }
%struct.anon = type { %struct._GLFWinitconfig, %struct._GLFWfbconfig, %struct._GLFWwndconfig, %struct._GLFWctxconfig, i32 }
%struct._GLFWinitconfig = type { i32, i32, i32, ptr, %struct.anon.0, %struct.anon.1, %struct.anon.2 }
%struct.anon.0 = type { i32, i32 }
%struct.anon.1 = type { i32 }
%struct.anon.2 = type { i32 }
%struct._GLFWfbconfig = type { i32, i32, i32, i32, i32, i32, i32, i32, i32, i32, i32, i32, i32, i32, i32, i32, i64 }
%struct._GLFWwndconfig = type { i32, i32, i32, i32, ptr, i32, i32, i32, i32, i32, i32, i32, i32, i32, i32, i32, i32, %struct.anon.3, %struct.anon.4, %struct.anon.5, %struct.anon.6 }
%struct.anon.3 = type { [256 x i8] }
%struct.anon.4 = type { [256 x i8], [256 x i8] }
%struct.anon.5 = type { i32, i32 }
%struct.anon.6 = type { [256 x i8] }
%struct._GLFWctxconfig = type { i32, i32, i32, i32, i32, i32, i32, i32, i32, i32, ptr, %struct.anon.7 }
%struct.anon.7 = type { i32 }
%struct._GLFWjoystick = type { i32, i32, ptr, i32, ptr, i32, ptr, i32, [128 x i8], ptr, [33 x i8], ptr, %struct._GLFWjoystickLinux }
%struct._GLFWjoystickLinux = type { i32, [4096 x i8], [512 x i32], [64 x i32], [64 x %struct.input_absinfo], [4 x [2 x i32]] }
%struct.input_absinfo = type { i32, i32, i32, i32, i32, i32 }
%struct._GLFWtls = type { %struct._GLFWtlsPOSIX }
%struct._GLFWtlsPOSIX = type { i32, i32 }
%struct._GLFWmutex = type { %struct._GLFWmutexPOSIX }
%struct._GLFWmutexPOSIX = type { i32, %union.pthread_mutex_t }
%union.pthread_mutex_t = type { %struct.__pthread_mutex_s }
%struct.__pthread_mutex_s = type { i32, i32, i32, i32, i32, i16, i16, %struct.__pthread_internal_list }
%struct.__pthread_internal_list = type { ptr, ptr }
%struct.anon.8 = type { i64, %struct._GLFWtimerPOSIX }
%struct._GLFWtimerPOSIX = type { i32, i64 }
%struct.anon.9 = type { i32, ptr, i32, i32, i32, i32, i32, i32, i32, i32, i32, i32, i32, i32, i32, i32, i32, i32, i32, i32, ptr, ptr, ptr, ptr, ptr, ptr, ptr, ptr, ptr, ptr, ptr, ptr, ptr, ptr, ptr, ptr, ptr, ptr, ptr }
%struct.anon.10 = type { ptr, ptr, ptr, ptr, ptr, ptr, ptr, ptr }
%struct.anon.11 = type { i32, ptr, [2 x ptr], ptr, i32, i32, i32, i32, i32, i32, i32 }
%struct.anon.12 = type { ptr, ptr }
%struct._GLFWlibraryWayland = type { ptr, ptr, ptr, ptr, ptr, ptr, ptr, ptr, ptr, ptr, ptr, ptr, ptr, ptr, ptr, ptr, ptr, ptr, ptr, i32, ptr, ptr, ptr, ptr, i32, ptr, ptr, ptr, ptr, ptr, i32, i32, i32, i32, i32, i32, i32, ptr, [256 x i16], [349 x i16], [349 x [5 x i8]], %struct.anon.13, ptr, ptr, %struct.anon.14, %struct.anon.15, %struct.anon.16, %struct.anon.17 }
%struct.anon.13 = type { ptr, ptr, ptr, ptr, ptr, i32, i32, i32, i32, i32, i32, i32, ptr, ptr, ptr, ptr, ptr, ptr, ptr, ptr, ptr, ptr, ptr, ptr, ptr, ptr, ptr, ptr, ptr, ptr, ptr, ptr }
%struct.anon.14 = type { ptr, ptr, ptr, ptr, ptr, ptr, ptr, ptr, ptr, ptr, ptr, ptr, ptr, ptr, ptr, ptr, ptr, ptr, ptr, ptr }
%struct.anon.15 = type { ptr, ptr, ptr, ptr, ptr }
%struct.anon.16 = type { ptr, ptr, ptr, ptr }
%struct.anon.17 = type { ptr, ptr, ptr, i32, ptr, ptr, ptr, ptr, ptr, ptr, ptr, ptr, ptr, ptr, ptr, ptr, ptr, ptr, ptr, ptr, ptr, ptr, ptr, ptr, ptr, ptr, ptr, ptr, ptr }
%struct._GLFWlibraryX11 = type { ptr, i32, i64, float, float, i64, i64, i32, ptr, ptr, i32, ptr, ptr, [349 x [5 x i8]], [256 x i16], [349 x i16], double, double, ptr, [2 x i32], i64, i64, i64, i64, i64, i64, i64, i64, i64, i64, i64, i64, i64, i64, i64, i64, i64, i64, i64, i64, i64, i64, i64, i64, i64, i64, i64, i64, i64, i64, i64, i64, i64, i64, i64, i64, i64, i64, i64, i64, i64, i64, i64, i64, i64, i64, i64, i64, i64, i64, %struct.anon.18, %struct.anon.19, %struct.anon.20, %struct.anon.21, %struct.anon.22, %struct.anon.23, %struct.anon.24, %struct.anon.25, %struct.anon.26, %struct.anon.27, %struct.anon.28, %struct.anon.29, %struct.anon.30 }
%struct.anon.18 = type { ptr, i32, ptr, ptr, ptr, ptr, ptr, ptr, ptr, ptr, ptr, ptr, ptr, ptr, ptr, ptr, ptr, ptr, ptr, ptr, ptr, ptr, ptr, ptr, ptr, ptr, ptr, ptr, ptr, ptr, ptr, ptr, ptr, ptr, ptr, ptr, ptr, ptr, ptr, ptr, ptr, ptr, ptr, ptr, ptr, ptr, ptr, ptr, ptr, ptr, ptr, ptr, ptr, ptr, ptr, ptr, ptr, ptr, ptr, ptr, ptr, ptr, ptr, ptr, ptr, ptr, ptr, ptr, ptr, ptr, ptr, ptr, ptr, ptr, ptr, ptr, ptr, ptr, ptr, ptr, ptr, ptr, ptr, ptr, ptr, ptr, ptr, ptr }
%struct.anon.19 = type { ptr, ptr, ptr, ptr }
%struct.anon.20 = type { i32, ptr, i32, i32, i32, i32, i32, i32, ptr, ptr, ptr, ptr, ptr, ptr, ptr, ptr, ptr, ptr, ptr, ptr, ptr, ptr, ptr, ptr, ptr }
%struct.anon.21 = type { i32, i32, i32, i32, i32, i32, i32, i32, ptr, ptr, ptr, ptr, ptr, ptr, ptr, ptr, ptr }
%struct.anon.22 = type { i32, i32, i32, i32, i32 }
%struct.anon.23 = type { i32, i64, i64 }
%struct.anon.24 = type { ptr, ptr, ptr, ptr, ptr, ptr, ptr }
%struct.anon.25 = type { i32, ptr, i32, i32, ptr, ptr, ptr }
%struct.anon.26 = type { ptr, ptr }
%struct.anon.27 = type { i32, ptr, i32, i32, ptr, ptr, ptr, ptr }
%struct.anon.28 = type { i32, ptr, i32, i32, i32, i32, i32, ptr, ptr }
%struct.anon.29 = type { i32, ptr, i32, i32, i32, i32, ptr, ptr, ptr }
%struct.anon.30 = type { i32, ptr, i32, i32, i32, i32, ptr, ptr, ptr, ptr }
%struct._GLFWlibraryNull = type { i32, i32, ptr, ptr, [121 x i16], [349 x i8] }
%struct._GLFWlibraryGLX = type { i32, i32, i32, i32, ptr, ptr, ptr, ptr, ptr, ptr, ptr, ptr, ptr, ptr, ptr, ptr, ptr, ptr, ptr, ptr, ptr, ptr, ptr, ptr, i32, i32, i32, i32, i32, i32, i32, i32, i32, i32, i32, i32 }
%struct._GLFWlibraryLinux = type { i32, i32, %struct.re_pattern_buffer, i32, i32 }
%struct.re_pattern_buffer = type { ptr, i64, i64, i64, ptr, ptr, i64, i8 }
%struct.regmatch_t = type { i32, i32 }
%struct.dirent = type { i64, i64, i16, i8, [256 x i8] }

@_glfw = external global %struct._GLFWlibrary, align 8
@.str.1 = private unnamed_addr constant [11 x i8] c"/dev/input\00", align 1
@.str.2 = private unnamed_addr constant [15 x i8] c"^event[0-9]\\+$\00", align 1
@.str.3 = private unnamed_addr constant [31 x i8] c"Linux: Failed to compile regex\00", align 1
@.str.4 = private unnamed_addr constant [6 x i8] c"%s/%s\00", align 1

; Function Attrs: nounwind uwtable
define hidden i32 @_glfwInitJoysticksLinux() #0 {
  %1 = alloca i32, align 4
  %2 = alloca ptr, align 8
  %3 = alloca i32, align 4
  %4 = alloca i32, align 4
  %5 = alloca ptr, align 8
  %6 = alloca ptr, align 8
  %7 = alloca %struct.regmatch_t, align 4
  %8 = alloca [4096 x i8], align 16
  call void @llvm.lifetime.start.p0(i64 8, ptr %2) #8
  store ptr @.str.1, ptr %2, align 8, !tbaa !97
  %9 = call i32 @inotify_init1(i32 noundef 526336) #8
  store i32 %9, ptr getelementptr inbounds nuw (%struct._GLFWlibrary, ptr @_glfw, i32 0, i32 25), align 8, !tbaa !3
  %10 = load i32, ptr getelementptr inbounds nuw (%struct._GLFWlibrary, ptr @_glfw, i32 0, i32 25), align 8, !tbaa !3
  %11 = icmp sgt i32 %10, 0
  br i1 %11, label %12, label %16

12:                                               ; preds = %0
  %13 = load i32, ptr getelementptr inbounds nuw (%struct._GLFWlibrary, ptr @_glfw, i32 0, i32 25), align 8, !tbaa !3
  %14 = load ptr, ptr %2, align 8, !tbaa !97
  %15 = call i32 @inotify_add_watch(i32 noundef %13, ptr noundef %14, i32 noundef 772) #8
  store i32 %15, ptr getelementptr inbounds nuw (%struct._GLFWlibraryLinux, ptr getelementptr inbounds nuw (%struct._GLFWlibrary, ptr @_glfw, i32 0, i32 25), i32 0, i32 1), align 4, !tbaa !113
  br label %16

16:                                               ; preds = %12, %0
  %17 = call i32 @regcomp(ptr noundef getelementptr inbounds nuw (%struct._GLFWlibraryLinux, ptr getelementptr inbounds nuw (%struct._GLFWlibrary, ptr @_glfw, i32 0, i32 25), i32 0, i32 2), ptr noundef @.str.2, i32 noundef 0)
  %18 = icmp eq i32 %17, 0
  %19 = zext i1 %18 to i32
  store i32 %19, ptr getelementptr inbounds nuw (%struct._GLFWlibraryLinux, ptr getelementptr inbounds nuw (%struct._GLFWlibrary, ptr @_glfw, i32 0, i32 25), i32 0, i32 3), align 8, !tbaa !114
  %20 = load i32, ptr getelementptr inbounds nuw (%struct._GLFWlibraryLinux, ptr getelementptr inbounds nuw (%struct._GLFWlibrary, ptr @_glfw, i32 0, i32 25), i32 0, i32 3), align 8, !tbaa !114
  %21 = icmp ne i32 %20, 0
  br i1 %21, label %23, label %22

22:                                               ; preds = %16
  call void (i32, ptr, ...) @_glfwInputError(i32 noundef 65544, ptr noundef @.str.3)
  store i32 0, ptr %1, align 4
  store i32 1, ptr %3, align 4
  br label %63

23:                                               ; preds = %16
  call void @llvm.lifetime.start.p0(i64 4, ptr %4) #8
  store i32 0, ptr %4, align 4, !tbaa !96
  call void @llvm.lifetime.start.p0(i64 8, ptr %5) #8
  %24 = load ptr, ptr %2, align 8, !tbaa !97
  %25 = call ptr @opendir(ptr noundef %24)
  store ptr %25, ptr %5, align 8, !tbaa !115
  %26 = load ptr, ptr %5, align 8, !tbaa !115
  %27 = icmp ne ptr %26, null
  br i1 %27, label %28, label %60

28:                                               ; preds = %23
  call void @llvm.lifetime.start.p0(i64 8, ptr %6) #8
  br label %29

29:                                               ; preds = %56, %54, %28
  %30 = load ptr, ptr %5, align 8, !tbaa !115
  %31 = call ptr @readdir(ptr noundef %30)
  store ptr %31, ptr %6, align 8, !tbaa !117
  %32 = icmp ne ptr %31, null
  br i1 %32, label %33, label %57

33:                                               ; preds = %29
  call void @llvm.lifetime.start.p0(i64 8, ptr %7) #8
  %34 = load ptr, ptr %6, align 8, !tbaa !117
  %35 = getelementptr inbounds nuw %struct.dirent, ptr %34, i32 0, i32 4
  %36 = getelementptr inbounds [256 x i8], ptr %35, i64 0, i64 0
  %37 = call i32 @regexec(ptr noundef getelementptr inbounds nuw (%struct._GLFWlibraryLinux, ptr getelementptr inbounds nuw (%struct._GLFWlibrary, ptr @_glfw, i32 0, i32 25), i32 0, i32 2), ptr noundef %36, i64 noundef 1, ptr noundef %7, i32 noundef 0)
  %38 = icmp ne i32 %37, 0
  br i1 %38, label %39, label %40

39:                                               ; preds = %33
  store i32 2, ptr %3, align 4
  br label %54

40:                                               ; preds = %33
  call void @llvm.lifetime.start.p0(i64 4096, ptr %8) #8
  %41 = getelementptr inbounds [4096 x i8], ptr %8, i64 0, i64 0
  %42 = load ptr, ptr %2, align 8, !tbaa !97
  %43 = load ptr, ptr %6, align 8, !tbaa !117
  %44 = getelementptr inbounds nuw %struct.dirent, ptr %43, i32 0, i32 4
  %45 = getelementptr inbounds [256 x i8], ptr %44, i64 0, i64 0
  %46 = call i32 (ptr, i64, ptr, ...) @snprintf(ptr noundef %41, i64 noundef 4096, ptr noundef @.str.4, ptr noundef %42, ptr noundef %45) #8
  %47 = getelementptr inbounds [4096 x i8], ptr %8, i64 0, i64 0
  %48 = call i32 @openJoystickDevice(ptr noundef %47)
  %49 = icmp ne i32 %48, 0
  br i1 %49, label %50, label %53

50:                                               ; preds = %40
  %51 = load i32, ptr %4, align 4, !tbaa !96
  %52 = add nsw i32 %51, 1
  store i32 %52, ptr %4, align 4, !tbaa !96
  br label %53

53:                                               ; preds = %50, %40
  call void @llvm.lifetime.end.p0(i64 4096, ptr %8) #8
  store i32 0, ptr %3, align 4
  br label %54

54:                                               ; preds = %53, %39
  call void @llvm.lifetime.end.p0(i64 8, ptr %7) #8
  %55 = load i32, ptr %3, align 4
  switch i32 %55, label %65 [
    i32 0, label %56
    i32 2, label %29
  ]

56:                                               ; preds = %54
  br label %29

57:                                               ; preds = %29
  %58 = load ptr, ptr %5, align 8, !tbaa !115
  %59 = call i32 @closedir(ptr noundef %58)
  call void @llvm.lifetime.end.p0(i64 8, ptr %6) #8
  br label %60

60:                                               ; preds = %57, %23
  %61 = load i32, ptr %4, align 4, !tbaa !96
  %62 = sext i32 %61 to i64
  call void @qsort(ptr noundef getelementptr inbounds nuw (%struct._GLFWlibrary, ptr @_glfw, i32 0, i32 10), i64 noundef %62, i64 noundef 8216, ptr noundef @compareJoysticks)
  store i32 1, ptr %1, align 4
  store i32 1, ptr %3, align 4
  call void @llvm.lifetime.end.p0(i64 8, ptr %5) #8
  call void @llvm.lifetime.end.p0(i64 4, ptr %4) #8
  br label %63

63:                                               ; preds = %60, %22
  call void @llvm.lifetime.end.p0(i64 8, ptr %2) #8
  %64 = load i32, ptr %1, align 4
  ret i32 %64

65:                                               ; preds = %54
  unreachable
}