; Function Attrs: nounwind uwtable
define hidden range(i32 0, 2) i32 @_glfwInitJoysticksLinux() local_unnamed_addr #0 {
  %1 = alloca %struct.regmatch_t, align 4
  %2 = alloca [4096 x i8], align 16
  %3 = tail call i32 @inotify_init1(i32 noundef 526336) #13
  store i32 %3, ptr getelementptr inbounds nuw (i8, ptr @_glfw, i64 143584), align 8, !tbaa !3
  %4 = icmp sgt i32 %3, 0
  br i1 %4, label %5, label %7

5:                                                ; preds = %0
  %6 = tail call i32 @inotify_add_watch(i32 noundef %3, ptr noundef nonnull @.str.1, i32 noundef 772) #13
  store i32 %6, ptr getelementptr inbounds nuw (i8, ptr @_glfw, i64 143588), align 4, !tbaa !105
  br label %7

7:                                                ; preds = %5, %0
  %8 = tail call i32 @regcomp(ptr noundef nonnull getelementptr inbounds nuw (i8, ptr @_glfw, i64 143592), ptr noundef nonnull @.str.2, i32 noundef 0) #13
  %9 = icmp eq i32 %8, 0
  %10 = zext i1 %9 to i32
  store i32 %10, ptr getelementptr inbounds nuw (i8, ptr @_glfw, i64 143656), align 8, !tbaa !106
  br i1 %9, label %12, label %11

11:                                               ; preds = %7
  tail call void (i32, ptr, ...) @_glfwInputError(i32 noundef 65544, ptr noundef nonnull @.str.3) #13
  br label %26

12:                                               ; preds = %7
  %13 = tail call ptr @opendir(ptr noundef nonnull @.str.1)
  %.not = icmp eq ptr %13, null
  br i1 %.not, label %25, label %.preheader

.preheader:                                       ; preds = %12
  %14 = tail call ptr @readdir(ptr noundef nonnull %13) #13
  %.not1417 = icmp eq ptr %14, null
  br i1 %.not1417, label %._crit_edge, label %.lr.ph

.lr.ph:                                           ; preds = %.preheader, %21
  %15 = phi ptr [ %22, %21 ], [ %14, %.preheader ]
  %.118 = phi i32 [ %.2, %21 ], [ 0, %.preheader ]
  call void @llvm.lifetime.start.p0(i64 8, ptr nonnull %1) #13
  %16 = getelementptr inbounds nuw i8, ptr %15, i64 19
  %17 = call i32 @regexec(ptr noundef nonnull getelementptr inbounds nuw (i8, ptr @_glfw, i64 143592), ptr noundef nonnull %16, i64 noundef 1, ptr noundef nonnull %1, i32 noundef 0) #13
  %.not15 = icmp eq i32 %17, 0
  br i1 %.not15, label %18, label %21

18:                                               ; preds = %.lr.ph
  call void @llvm.lifetime.start.p0(i64 4096, ptr nonnull %2) #13
  %19 = call i32 (ptr, i64, ptr, ...) @snprintf(ptr noundef nonnull dereferenceable(1) %2, i64 noundef 4096, ptr noundef nonnull @.str.4, ptr noundef nonnull @.str.1, ptr noundef nonnull %16) #13
  %20 = call fastcc i32 @openJoystickDevice(ptr noundef %2)
  %spec.select = add nsw i32 %20, %.118
  call void @llvm.lifetime.end.p0(i64 4096, ptr nonnull %2) #13
  br label %21

21:                                               ; preds = %.lr.ph, %18
  %.2 = phi i32 [ %spec.select, %18 ], [ %.118, %.lr.ph ]
  call void @llvm.lifetime.end.p0(i64 8, ptr nonnull %1) #13
  %22 = call ptr @readdir(ptr noundef nonnull %13) #13
  %.not14 = icmp eq ptr %22, null
  br i1 %.not14, label %._crit_edge.loopexit, label %.lr.ph

._crit_edge.loopexit:                             ; preds = %21
  %23 = sext i32 %.2 to i64
  br label %._crit_edge

._crit_edge:                                      ; preds = %._crit_edge.loopexit, %.preheader
  %.1.lcssa = phi i64 [ 0, %.preheader ], [ %23, %._crit_edge.loopexit ]
  %24 = call i32 @closedir(ptr noundef nonnull %13)
  br label %25

25:                                               ; preds = %._crit_edge, %12
  %.010 = phi i64 [ %.1.lcssa, %._crit_edge ], [ 0, %12 ]
  call void @qsort(ptr noundef nonnull getelementptr inbounds nuw (i8, ptr @_glfw, i64 1936), i64 noundef %.010, i64 noundef 8216, ptr noundef nonnull @compareJoysticks) #13
  br label %26

26:                                               ; preds = %25, %11
  %.0 = phi i32 [ 1, %25 ], [ 0, %11 ]
  ret i32 %.0
}